target datalayout = "e-m:e-p270:32:32-p271:32:32-p272:64:64-i64:64-i128:128-f80:128-n8:16:32:64-S128"
target triple = "x86_64-pc-linux-gnu"

%struct.PartitionBoundInfoData = type { i32, i32, ptr, ptr, ptr, i32, ptr, i32, i32 }

; Function Attrs: nounwind uwtable
define dso_local zeroext i1 @partition_bounds_equal(i32 noundef %0, ptr noundef %1, ptr noundef %2, ptr noundef %3, ptr noundef %4) #0 {
  %6 = alloca i1, align 1
  %7 = alloca i32, align 4
  %8 = alloca ptr, align 8
  %9 = alloca ptr, align 8
  %10 = alloca ptr, align 8
  %11 = alloca ptr, align 8
  %12 = alloca i32, align 4
  %13 = alloca i32, align 4
  %14 = alloca i32, align 4
  store i32 %0, ptr %7, align 4
  store ptr %1, ptr %8, align 8
  store ptr %2, ptr %9, align 8
  store ptr %3, ptr %10, align 8
  store ptr %4, ptr %11, align 8
  call void @llvm.lifetime.start.p0(i64 4, ptr %12) #9
  %15 = load ptr, ptr %10, align 8
  %16 = getelementptr inbounds nuw %struct.PartitionBoundInfoData, ptr %15, i32 0, i32 0
  %17 = load i32, ptr %16, align 8
  %18 = load ptr, ptr %11, align 8
  %19 = getelementptr inbounds nuw %struct.PartitionBoundInfoData, ptr %18, i32 0, i32 0
  %20 = load i32, ptr %19, align 8
  %21 = icmp ne i32 %17, %20
  br i1 %21, label %22, label %23

22:                                               ; preds = %5
  store i1 false, ptr %6, align 1
  store i32 1, ptr %13, align 4
  br label %200

23:                                               ; preds = %5
  %24 = load ptr, ptr %10, align 8
  %25 = getelementptr inbounds nuw %struct.PartitionBoundInfoData, ptr %24, i32 0, i32 1
  %26 = load i32, ptr %25, align 4
  %27 = load ptr, ptr %11, align 8
  %28 = getelementptr inbounds nuw %struct.PartitionBoundInfoData, ptr %27, i32 0, i32 1
  %29 = load i32, ptr %28, align 4
  %30 = icmp ne i32 %26, %29
  br i1 %30, label %31, label %32

31:                                               ; preds = %23
  store i1 false, ptr %6, align 1
  store i32 1, ptr %13, align 4
  br label %200

32:                                               ; preds = %23
  %33 = load ptr, ptr %10, align 8
  %34 = getelementptr inbounds nuw %struct.PartitionBoundInfoData, ptr %33, i32 0, i32 5
  %35 = load i32, ptr %34, align 8
  %36 = load ptr, ptr %11, align 8
  %37 = getelementptr inbounds nuw %struct.PartitionBoundInfoData, ptr %36, i32 0, i32 5
  %38 = load i32, ptr %37, align 8
  %39 = icmp ne i32 %35, %38
  br i1 %39, label %40, label %41

40:                                               ; preds = %32
  store i1 false, ptr %6, align 1
  store i32 1, ptr %13, align 4
  br label %200

41:                                               ; preds = %32
  %42 = load ptr, ptr %10, align 8
  %43 = getelementptr inbounds nuw %struct.PartitionBoundInfoData, ptr %42, i32 0, i32 7
  %44 = load i32, ptr %43, align 8
  %45 = load ptr, ptr %11, align 8
  %46 = getelementptr inbounds nuw %struct.PartitionBoundInfoData, ptr %45, i32 0, i32 7
  %47 = load i32, ptr %46, align 8
  %48 = icmp ne i32 %44, %47
  br i1 %48, label %49, label %50

49:                                               ; preds = %41
  store i1 false, ptr %6, align 1
  store i32 1, ptr %13, align 4
  br label %200

50:                                               ; preds = %41
  %51 = load ptr, ptr %10, align 8
  %52 = getelementptr inbounds nuw %struct.PartitionBoundInfoData, ptr %51, i32 0, i32 8
  %53 = load i32, ptr %52, align 4
  %54 = load ptr, ptr %11, align 8
  %55 = getelementptr inbounds nuw %struct.PartitionBoundInfoData, ptr %54, i32 0, i32 8
  %56 = load i32, ptr %55, align 4
  %57 = icmp ne i32 %53, %56
  br i1 %57, label %58, label %59

58:                                               ; preds = %50
  store i1 false, ptr %6, align 1
  store i32 1, ptr %13, align 4
  br label %200

59:                                               ; preds = %50
  store i32 0, ptr %12, align 4
  br label %60

60:                                               ; preds = %84, %59
  %61 = load i32, ptr %12, align 4
  %62 = load ptr, ptr %10, align 8
  %63 = getelementptr inbounds nuw %struct.PartitionBoundInfoData, ptr %62, i32 0, i32 5
  %64 = load i32, ptr %63, align 8
  %65 = icmp slt i32 %61, %64
  br i1 %65, label %66, label %87

66:                                               ; preds = %60
  %67 = load ptr, ptr %10, align 8
  %68 = getelementptr inbounds nuw %struct.PartitionBoundInfoData, ptr %67, i32 0, i32 6
  %69 = load ptr, ptr %68, align 8
  %70 = load i32, ptr %12, align 4
  %71 = sext i32 %70 to i64
  %72 = getelementptr inbounds i32, ptr %69, i64 %71
  %73 = load i32, ptr %72, align 4
  %74 = load ptr, ptr %11, align 8
  %75 = getelementptr inbounds nuw %struct.PartitionBoundInfoData, ptr %74, i32 0, i32 6
  %76 = load ptr, ptr %75, align 8
  %77 = load i32, ptr %12, align 4
  %78 = sext i32 %77 to i64
  %79 = getelementptr inbounds i32, ptr %76, i64 %78
  %80 = load i32, ptr %79, align 4
  %81 = icmp ne i32 %73, %80
  br i1 %81, label %82, label %83

82:                                               ; preds = %66
  store i1 false, ptr %6, align 1
  store i32 1, ptr %13, align 4
  br label %200

83:                                               ; preds = %66
  br label %84

84:                                               ; preds = %83
  %85 = load i32, ptr %12, align 4
  %86 = add i32 %85, 1
  store i32 %86, ptr %12, align 4
  br label %60, !llvm.loop !28

87:                                               ; preds = %60
  %88 = load ptr, ptr %10, align 8
  %89 = getelementptr inbounds nuw %struct.PartitionBoundInfoData, ptr %88, i32 0, i32 0
  %90 = load i32, ptr %89, align 8
  %91 = icmp eq i32 %90, 104
  br i1 %91, label %92, label %93

92:                                               ; preds = %87
  br label %199

93:                                               ; preds = %87
  store i32 0, ptr %12, align 4
  br label %94

94:                                               ; preds = %195, %93
  %95 = load i32, ptr %12, align 4
  %96 = load ptr, ptr %10, align 8
  %97 = getelementptr inbounds nuw %struct.PartitionBoundInfoData, ptr %96, i32 0, i32 1
  %98 = load i32, ptr %97, align 4
  %99 = icmp slt i32 %95, %98
  br i1 %99, label %100, label %198

100:                                              ; preds = %94
  call void @llvm.lifetime.start.p0(i64 4, ptr %14) #9
  store i32 0, ptr %14, align 4
  br label %101

101:                                              ; preds = %188, %100
  %102 = load i32, ptr %14, align 4
  %103 = load i32, ptr %7, align 4
  %104 = icmp slt i32 %102, %103
  br i1 %104, label %105, label %191

105:                                              ; preds = %101
  %106 = load ptr, ptr %10, align 8
  %107 = getelementptr inbounds nuw %struct.PartitionBoundInfoData, ptr %106, i32 0, i32 3
  %108 = load ptr, ptr %107, align 8
  %109 = icmp ne ptr %108, null
  br i1 %109, label %110, label %150

110:                                              ; preds = %105
  %111 = load ptr, ptr %10, align 8
  %112 = getelementptr inbounds nuw %struct.PartitionBoundInfoData, ptr %111, i32 0, i32 3
  %113 = load ptr, ptr %112, align 8
  %114 = load i32, ptr %12, align 4
  %115 = sext i32 %114 to i64
  %116 = getelementptr inbounds ptr, ptr %113, i64 %115
  %117 = load ptr, ptr %116, align 8
  %118 = load i32, ptr %14, align 4
  %119 = sext i32 %118 to i64
  %120 = getelementptr inbounds i32, ptr %117, i64 %119
  %121 = load i32, ptr %120, align 4
  %122 = load ptr, ptr %11, align 8
  %123 = getelementptr inbounds nuw %struct.PartitionBoundInfoData, ptr %122, i32 0, i32 3
  %124 = load ptr, ptr %123, align 8
  %125 = load i32, ptr %12, align 4
  %126 = sext i32 %125 to i64
  %127 = getelementptr inbounds ptr, ptr %124, i64 %126
  %128 = load ptr, ptr %127, align 8
  %129 = load i32, ptr %14, align 4
  %130 = sext i32 %129 to i64
  %131 = getelementptr inbounds i32, ptr %128, i64 %130
  %132 = load i32, ptr %131, align 4
  %133 = icmp ne i32 %121, %132
  br i1 %133, label %134, label %135

134:                                              ; preds = %110
  store i1 false, ptr %6, align 1
  store i32 1, ptr %13, align 4
  br label %192

135:                                              ; preds = %110
  %136 = load ptr, ptr %10, align 8
  %137 = getelementptr inbounds nuw %struct.PartitionBoundInfoData, ptr %136, i32 0, i32 3
  %138 = load ptr, ptr %137, align 8
  %139 = load i32, ptr %12, align 4
  %140 = sext i32 %139 to i64
  %141 = getelementptr inbounds ptr, ptr %138, i64 %140
  %142 = load ptr, ptr %141, align 8
  %143 = load i32, ptr %14, align 4
  %144 = sext i32 %143 to i64
  %145 = getelementptr inbounds i32, ptr %142, i64 %144
  %146 = load i32, ptr %145, align 4
  %147 = icmp ne i32 %146, 0
  br i1 %147, label %148, label %149

148:                                              ; preds = %135
  br label %188

149:                                              ; preds = %135
  br label %150

150:                                              ; preds = %149, %105
  %151 = load ptr, ptr %10, align 8
  %152 = getelementptr inbounds nuw %struct.PartitionBoundInfoData, ptr %151, i32 0, i32 2
  %153 = load ptr, ptr %152, align 8
  %154 = load i32, ptr %12, align 4
  %155 = sext i32 %154 to i64
  %156 = getelementptr inbounds ptr, ptr %153, i64 %155
  %157 = load ptr, ptr %156, align 8
  %158 = load i32, ptr %14, align 4
  %159 = sext i32 %158 to i64
  %160 = getelementptr inbounds i64, ptr %157, i64 %159
  %161 = load i64, ptr %160, align 8
  %162 = load ptr, ptr %11, align 8
  %163 = getelementptr inbounds nuw %struct.PartitionBoundInfoData, ptr %162, i32 0, i32 2
  %164 = load ptr, ptr %163, align 8
  %165 = load i32, ptr %12, align 4
  %166 = sext i32 %165 to i64
  %167 = getelementptr inbounds ptr, ptr %164, i64 %166
  %168 = load ptr, ptr %167, align 8
  %169 = load i32, ptr %14, align 4
  %170 = sext i32 %169 to i64
  %171 = getelementptr inbounds i64, ptr %168, i64 %170
  %172 = load i64, ptr %171, align 8
  %173 = load ptr, ptr %9, align 8
  %174 = load i32, ptr %14, align 4
  %175 = sext i32 %174 to i64
  %176 = getelementptr inbounds i8, ptr %173, i64 %175
  %177 = load i8, ptr %176, align 1, !range !6, !noundef !7
  %178 = trunc i8 %177 to i1
  %179 = load ptr, ptr %8, align 8
  %180 = load i32, ptr %14, align 4
  %181 = sext i32 %180 to i64
  %182 = getelementptr inbounds i16, ptr %179, i64 %181
  %183 = load i16, ptr %182, align 2
  %184 = sext i16 %183 to i32
  %185 = call zeroext i1 @datumIsEqual(i64 noundef %161, i64 noundef %172, i1 noundef zeroext %178, i32 noundef %184)
  br i1 %185, label %187, label %186

186:                                              ; preds = %150
  store i1 false, ptr %6, align 1
  store i32 1, ptr %13, align 4
  br label %192

187:                                              ; preds = %150
  br label %188

188:                                              ; preds = %187, %148
  %189 = load i32, ptr %14, align 4
  %190 = add i32 %189, 1
  store i32 %190, ptr %14, align 4
  br label %101, !llvm.loop !29

191:                                              ; preds = %101
  store i32 0, ptr %13, align 4
  br label %192

192:                                              ; preds = %191, %186, %134
  call void @llvm.lifetime.end.p0(i64 4, ptr %14) #9
  %193 = load i32, ptr %13, align 4
  switch i32 %193, label %200 [
    i32 0, label %194
  ]

194:                                              ; preds = %192
  br label %195

195:                                              ; preds = %194
  %196 = load i32, ptr %12, align 4
  %197 = add i32 %196, 1
  store i32 %197, ptr %12, align 4
  br label %94, !llvm.loop !30

198:                                              ; preds = %94
  br label %199

199:                                              ; preds = %198, %92
  store i1 true, ptr %6, align 1
  store i32 1, ptr %13, align 4
  br label %200

200:                                              ; preds = %199, %192, %82, %58, %49, %40, %31, %22
  call void @llvm.lifetime.end.p0(i64 4, ptr %12) #9
  %201 = load i1, ptr %6, align 1
  ret i1 %201
}