; Function Attrs: nounwind uwtable
define dso_local noundef zeroext i1 @partition_bounds_equal(i32 noundef %0, ptr noundef readonly captures(none) %1, ptr noundef readonly captures(none) %2, ptr noundef readonly captures(none) %3, ptr noundef readonly captures(none) %4) local_unnamed_addr #0 {
  %6 = load i32, ptr %3, align 8
  %7 = load i32, ptr %4, align 8
  %.not = icmp eq i32 %6, %7
  br i1 %.not, label %8, label %.loopexit

8:                                                ; preds = %5
  %9 = getelementptr inbounds nuw i8, ptr %3, i64 4
  %10 = load i32, ptr %9, align 4
  %11 = getelementptr inbounds nuw i8, ptr %4, i64 4
  %12 = load i32, ptr %11, align 4
  %.not51 = icmp eq i32 %10, %12
  br i1 %.not51, label %13, label %.loopexit

13:                                               ; preds = %8
  %14 = getelementptr inbounds nuw i8, ptr %3, i64 32
  %15 = load i32, ptr %14, align 8
  %16 = getelementptr inbounds nuw i8, ptr %4, i64 32
  %17 = load i32, ptr %16, align 8
  %.not52 = icmp eq i32 %15, %17
  br i1 %.not52, label %18, label %.loopexit

18:                                               ; preds = %13
  %19 = getelementptr inbounds nuw i8, ptr %3, i64 48
  %20 = load i32, ptr %19, align 8
  %21 = getelementptr inbounds nuw i8, ptr %4, i64 48
  %22 = load i32, ptr %21, align 8
  %.not53 = icmp eq i32 %20, %22
  br i1 %.not53, label %23, label %.loopexit

23:                                               ; preds = %18
  %24 = getelementptr inbounds nuw i8, ptr %3, i64 52
  %25 = load i32, ptr %24, align 4
  %26 = getelementptr inbounds nuw i8, ptr %4, i64 52
  %27 = load i32, ptr %26, align 4
  %.not54 = icmp eq i32 %25, %27
  br i1 %.not54, label %.preheader62, label %.loopexit

.preheader62:                                     ; preds = %23
  %28 = icmp sgt i32 %15, 0
  br i1 %28, label %.lr.ph, label %._crit_edge

.lr.ph:                                           ; preds = %.preheader62
  %29 = getelementptr inbounds nuw i8, ptr %3, i64 40
  %30 = load ptr, ptr %29, align 8
  %31 = getelementptr inbounds nuw i8, ptr %4, i64 40
  %32 = load ptr, ptr %31, align 8
  %wide.trip.count = zext nneg i32 %15 to i64
  br label %34

33:                                               ; preds = %34
  %indvars.iv.next = add nuw nsw i64 %indvars.iv, 1
  %exitcond.not = icmp eq i64 %indvars.iv.next, %wide.trip.count
  br i1 %exitcond.not, label %._crit_edge, label %34, !llvm.loop !30

34:                                               ; preds = %.lr.ph, %33
  %indvars.iv = phi i64 [ 0, %.lr.ph ], [ %indvars.iv.next, %33 ]
  %35 = getelementptr inbounds nuw i32, ptr %30, i64 %indvars.iv
  %36 = load i32, ptr %35, align 4
  %37 = getelementptr inbounds nuw i32, ptr %32, i64 %indvars.iv
  %38 = load i32, ptr %37, align 4
  %.not59 = icmp eq i32 %36, %38
  br i1 %.not59, label %33, label %.loopexit

._crit_edge:                                      ; preds = %33, %.preheader62
  %39 = icmp ne i32 %6, 104
  %40 = icmp sgt i32 %10, 0
  %or.cond = and i1 %39, %40
  br i1 %or.cond, label %.preheader.lr.ph, label %.loopexit

.preheader.lr.ph:                                 ; preds = %._crit_edge
  %.not5865 = icmp sgt i32 %0, 0
  %41 = getelementptr inbounds nuw i8, ptr %3, i64 16
  %42 = getelementptr inbounds nuw i8, ptr %4, i64 16
  %43 = getelementptr inbounds nuw i8, ptr %3, i64 8
  %44 = getelementptr inbounds nuw i8, ptr %4, i64 8
  br i1 %.not5865, label %.preheader.us.preheader, label %.loopexit

.preheader.us.preheader:                          ; preds = %.preheader.lr.ph
  %wide.trip.count76 = zext nneg i32 %0 to i64
  br label %.preheader.us

.preheader.us:                                    ; preds = %.preheader.us.preheader, %..critedge_crit_edge.us
  %indvars.iv78 = phi i64 [ 0, %.preheader.us.preheader ], [ %indvars.iv.next79, %..critedge_crit_edge.us ]
  br label %45

45:                                               ; preds = %.preheader.us, %76
  %indvars.iv73 = phi i64 [ 0, %.preheader.us ], [ %indvars.iv.next74, %76 ]
  %46 = load ptr, ptr %41, align 8
  %.not55.us = icmp eq ptr %46, null
  br i1 %.not55.us, label %58, label %47

47:                                               ; preds = %45
  %48 = getelementptr inbounds nuw ptr, ptr %46, i64 %indvars.iv78
  %49 = load ptr, ptr %48, align 8
  %50 = getelementptr inbounds nuw i32, ptr %49, i64 %indvars.iv73
  %51 = load i32, ptr %50, align 4
  %52 = load ptr, ptr %42, align 8
  %53 = getelementptr inbounds nuw ptr, ptr %52, i64 %indvars.iv78
  %54 = load ptr, ptr %53, align 8
  %55 = getelementptr inbounds nuw i32, ptr %54, i64 %indvars.iv73
  %56 = load i32, ptr %55, align 4
  %.not56.us = icmp eq i32 %51, %56
  br i1 %.not56.us, label %57, label %.loopexit

57:                                               ; preds = %47
  %.not57.us = icmp eq i32 %51, 0
  br i1 %.not57.us, label %58, label %76

58:                                               ; preds = %57, %45
  %59 = load ptr, ptr %43, align 8
  %60 = getelementptr inbounds nuw ptr, ptr %59, i64 %indvars.iv78
  %61 = load ptr, ptr %60, align 8
  %62 = getelementptr inbounds nuw i64, ptr %61, i64 %indvars.iv73
  %63 = load i64, ptr %62, align 8
  %64 = load ptr, ptr %44, align 8
  %65 = getelementptr inbounds nuw ptr, ptr %64, i64 %indvars.iv78
  %66 = load ptr, ptr %65, align 8
  %67 = getelementptr inbounds nuw i64, ptr %66, i64 %indvars.iv73
  %68 = load i64, ptr %67, align 8
  %69 = getelementptr inbounds nuw i8, ptr %2, i64 %indvars.iv73
  %70 = load i8, ptr %69, align 1, !range !6, !noundef !7
  %71 = trunc nuw i8 %70 to i1
  %72 = getelementptr inbounds nuw i16, ptr %1, i64 %indvars.iv73
  %73 = load i16, ptr %72, align 2
  %74 = sext i16 %73 to i32
  %75 = tail call zeroext i1 @datumIsEqual(i64 noundef %63, i64 noundef %68, i1 noundef zeroext %71, i32 noundef %74) #12
  br i1 %75, label %76, label %.loopexit

76:                                               ; preds = %58, %57
  %indvars.iv.next74 = add nuw nsw i64 %indvars.iv73, 1
  %exitcond77.not = icmp eq i64 %indvars.iv.next74, %wide.trip.count76
  br i1 %exitcond77.not, label %..critedge_crit_edge.us, label %45, !llvm.loop !31

..critedge_crit_edge.us:                          ; preds = %76
  %indvars.iv.next79 = add nuw nsw i64 %indvars.iv78, 1
  %77 = load i32, ptr %9, align 4
  %78 = sext i32 %77 to i64
  %79 = icmp slt i64 %indvars.iv.next79, %78
  br i1 %79, label %.preheader.us, label %.loopexit, !llvm.loop !32

.loopexit:                                        ; preds = %34, %..critedge_crit_edge.us, %58, %47, %.preheader.lr.ph, %._crit_edge, %23, %18, %13, %8, %5
  %.047 = phi i1 [ false, %5 ], [ false, %8 ], [ false, %13 ], [ false, %18 ], [ false, %23 ], [ true, %._crit_edge ], [ true, %.preheader.lr.ph ], [ false, %47 ], [ false, %58 ], [ true, %..critedge_crit_edge.us ], [ false, %34 ]
  ret i1 %.047
}